; Function Attrs: nounwind uwtable
define internal fastcc void @decoded_frames_flush(ptr noundef captures(none) %0) unnamed_addr #0 {
  %2 = getelementptr inbounds nuw i8, ptr %0, i64 8
  %3 = load i64, ptr %2, align 8, !tbaa !94
  %.not = icmp eq i64 %3, 0
  br i1 %.not, label %._crit_edge, label %.lr.ph

._crit_edge:                                      ; preds = %.lr.ph, %1
  store i64 0, ptr %2, align 8, !tbaa !94
  ret void

.lr.ph:                                           ; preds = %1, %.lr.ph
  %.05 = phi i64 [ %7, %.lr.ph ], [ 0, %1 ]
  %4 = load ptr, ptr %0, align 8, !tbaa !92
  %5 = getelementptr inbounds nuw ptr, ptr %4, i64 %.05
  %6 = load ptr, ptr %5, align 8, !tbaa !93
  tail call void @av_frame_unref(ptr noundef %6) #11
  %7 = add nuw i64 %.05, 1
  %8 = load i64, ptr %2, align 8, !tbaa !94
  %9 = icmp ult i64 %7, %8
  br i1 %9, label %.lr.ph, label %._crit_edge, !llvm.loop !175
}